target datalayout = "e-m:e-p270:32:32-p271:32:32-p272:64:64-i64:64-i128:128-f80:128-n8:16:32:64-S128"
target triple = "x86_64-pc-linux-gnu"

@hf_eip_cert_num_certs = internal global i32 0, align 4
@hf_eip_cert_cert_name = internal global i32 0, align 4
@ett_eip_cert_num_certs = internal global i32 0, align 4

; Function Attrs: null_pointer_is_valid sspstrong uwtable
define internal i32 @dissect_eip_cert_cert_list(ptr noundef %0, ptr noundef %1, ptr noundef %2, ptr noundef %3, i32 noundef %4, i32 noundef %5) #0 {
  %7 = alloca ptr, align 8
  %8 = alloca ptr, align 8
  %9 = alloca ptr, align 8
  %10 = alloca ptr, align 8
  %11 = alloca i32, align 4
  %12 = alloca i32, align 4
  %13 = alloca i32, align 4
  %14 = alloca i32, align 4
  %15 = alloca i32, align 4
  %16 = alloca ptr, align 8
  %17 = alloca ptr, align 8
  %18 = alloca i32, align 4
  store ptr %0, ptr %7, align 8
  store ptr %1, ptr %8, align 8
  store ptr %2, ptr %9, align 8
  store ptr %3, ptr %10, align 8
  store i32 %4, ptr %11, align 4
  store i32 %5, ptr %12, align 4
  call void @llvm.lifetime.start.p0(i64 4, ptr %13) #14
  call void @llvm.lifetime.start.p0(i64 4, ptr %14) #14
  call void @llvm.lifetime.start.p0(i64 4, ptr %15) #14
  call void @llvm.lifetime.start.p0(i64 8, ptr %16) #14
  call void @llvm.lifetime.start.p0(i64 8, ptr %17) #14
  call void @llvm.lifetime.start.p0(i64 4, ptr %18) #14
  %19 = load i32, ptr %11, align 4
  store i32 %19, ptr %18, align 4
  %20 = load ptr, ptr %8, align 8
  %21 = load i32, ptr @hf_eip_cert_num_certs, align 4
  %22 = load ptr, ptr %10, align 8
  %23 = load i32, ptr %11, align 4
  %24 = call ptr @proto_tree_add_item_ret_uint(ptr noundef %20, i32 noundef %21, ptr noundef %22, i32 noundef %23, i32 noundef 1, i32 noundef 0, ptr noundef %14)
  store ptr %24, ptr %16, align 8
  %25 = load ptr, ptr %16, align 8
  %26 = load i32, ptr @ett_eip_cert_num_certs, align 4
  %27 = call ptr @proto_item_add_subtree(ptr noundef %25, i32 noundef %26)
  store ptr %27, ptr %17, align 8
  %28 = load i32, ptr %11, align 4
  %29 = add i32 %28, 1
  store i32 %29, ptr %11, align 4
  store i32 0, ptr %13, align 4
  br label %30

30:                                               ; preds = %60, %6
  %31 = load i32, ptr %13, align 4
  %32 = load i32, ptr %14, align 4
  %33 = icmp ult i32 %31, %32
  br i1 %33, label %34, label %63

34:                                               ; preds = %30
  %35 = load ptr, ptr %10, align 8
  %36 = load i32, ptr %11, align 4
  %37 = call zeroext i8 @tvb_get_uint8(ptr noundef %35, i32 noundef %36)
  %38 = zext i8 %37 to i32
  store i32 %38, ptr %15, align 4
  %39 = load ptr, ptr %8, align 8
  %40 = load i32, ptr @hf_eip_cert_cert_name, align 4
  %41 = load ptr, ptr %10, align 8
  %42 = load i32, ptr %11, align 4
  %43 = add i32 %42, 1
  %44 = load i32, ptr %15, align 4
  %45 = call ptr @proto_tree_add_item(ptr noundef %39, i32 noundef %40, ptr noundef %41, i32 noundef %43, i32 noundef %44, i32 noundef 0)
  %46 = load i32, ptr %15, align 4
  %47 = add i32 1, %46
  %48 = load i32, ptr %11, align 4
  %49 = add i32 %48, %47
  store i32 %49, ptr %11, align 4
  %50 = load ptr, ptr %7, align 8
  %51 = load ptr, ptr %17, align 8
  %52 = load ptr, ptr %16, align 8
  %53 = load ptr, ptr %10, align 8
  %54 = load i32, ptr %11, align 4
  %55 = load i32, ptr %12, align 4
  %56 = call i32 @dissect_padded_epath_len_usint(ptr noundef %50, ptr noundef %51, ptr noundef %52, ptr noundef %53, i32 noundef %54, i32 noundef %55)
  store i32 %56, ptr %15, align 4
  %57 = load i32, ptr %15, align 4
  %58 = load i32, ptr %11, align 4
  %59 = add i32 %58, %57
  store i32 %59, ptr %11, align 4
  br label %60

60:                                               ; preds = %34
  %61 = load i32, ptr %13, align 4
  %62 = add i32 %61, 1
  store i32 %62, ptr %13, align 4
  br label %30, !llvm.loop !17

63:                                               ; preds = %30
  %64 = load ptr, ptr %16, align 8
  %65 = load i32, ptr %11, align 4
  %66 = load i32, ptr %18, align 4
  %67 = sub i32 %65, %66
  call void @proto_item_set_len(ptr noundef %64, i32 noundef %67)
  %68 = load i32, ptr %11, align 4
  %69 = load i32, ptr %18, align 4
  %70 = sub i32 %68, %69
  call void @llvm.lifetime.end.p0(i64 4, ptr %18) #14
  call void @llvm.lifetime.end.p0(i64 8, ptr %17) #14
  call void @llvm.lifetime.end.p0(i64 8, ptr %16) #14
  call void @llvm.lifetime.end.p0(i64 4, ptr %15) #14
  call void @llvm.lifetime.end.p0(i64 4, ptr %14) #14
  call void @llvm.lifetime.end.p0(i64 4, ptr %13) #14
  ret i32 %70
}