; Function Attrs: null_pointer_is_valid sspstrong uwtable
define internal noundef i32 @dissect_eip_cert_cert_list(ptr noundef %0, ptr noundef %1, ptr readnone captures(none) %2, ptr noundef %3, i32 noundef %4, i32 noundef %5) #0 {
  %7 = alloca i32, align 4
  call void @llvm.lifetime.start.p0(i64 4, ptr nonnull %7) #12
  %8 = load i32, ptr @hf_eip_cert_num_certs, align 4
  %9 = call ptr @proto_tree_add_item_ret_uint(ptr noundef %1, i32 noundef %8, ptr noundef %3, i32 noundef %4, i32 noundef 1, i32 noundef 0, ptr noundef nonnull %7)
  %10 = load i32, ptr @ett_eip_cert_num_certs, align 4
  %11 = call ptr @proto_item_add_subtree(ptr noundef %9, i32 noundef %10)
  %12 = add i32 %4, 1
  %13 = load i32, ptr %7, align 4
  %.not = icmp eq i32 %13, 0
  br i1 %.not, label %._crit_edge, label %.lr.ph

.lr.ph:                                           ; preds = %6, %.lr.ph
  %.030 = phi i32 [ %21, %.lr.ph ], [ %12, %6 ]
  %.02829 = phi i32 [ %22, %.lr.ph ], [ 0, %6 ]
  %14 = call zeroext i8 @tvb_get_uint8(ptr noundef %3, i32 noundef %.030)
  %15 = zext i8 %14 to i32
  %16 = load i32, ptr @hf_eip_cert_cert_name, align 4
  %17 = add i32 %.030, 1
  %18 = call ptr @proto_tree_add_item(ptr noundef %1, i32 noundef %16, ptr noundef %3, i32 noundef %17, i32 noundef %15, i32 noundef 0)
  %19 = add i32 %17, %15
  %20 = call i32 @dissect_padded_epath_len_usint(ptr noundef %0, ptr noundef %11, ptr noundef %9, ptr noundef %3, i32 noundef %19, i32 noundef %5)
  %21 = add i32 %19, %20
  %22 = add nuw i32 %.02829, 1
  %23 = load i32, ptr %7, align 4
  %24 = icmp ult i32 %22, %23
  br i1 %24, label %.lr.ph, label %._crit_edge, !llvm.loop !16

._crit_edge:                                      ; preds = %.lr.ph, %6
  %.0.lcssa = phi i32 [ %12, %6 ], [ %21, %.lr.ph ]
  %25 = sub i32 %.0.lcssa, %4
  call void @proto_item_set_len(ptr noundef %9, i32 noundef %25)
  call void @llvm.lifetime.end.p0(i64 4, ptr nonnull %7) #12
  ret i32 %25
}